target datalayout = "e-m:e-p270:32:32-p271:32:32-p272:64:64-i64:64-i128:128-f80:128-n8:16:32:64-S128"
target triple = "x86_64-pc-linux-gnu"

%struct._cmsPipeline_struct = type { ptr, i32, i32, ptr, ptr, ptr, ptr, ptr, ptr, i32 }
%struct.GrayOnlyParams = type { ptr, ptr }

; Function Attrs: nounwind uwtable
define internal i32 @BlackPreservingGrayOnlySampler(ptr noundef %0, ptr noundef %1, ptr noundef %2) #0 {
  %4 = alloca i32, align 4
  %5 = alloca ptr, align 8
  %6 = alloca ptr, align 8
  %7 = alloca ptr, align 8
  %8 = alloca ptr, align 8
  store ptr %0, ptr %5, align 8
  store ptr %1, ptr %6, align 8
  store ptr %2, ptr %7, align 8
  %9 = load ptr, ptr %7, align 8
  store ptr %9, ptr %8, align 8
  %10 = load ptr, ptr %5, align 8
  %11 = getelementptr inbounds i16, ptr %10, i64 0
  %12 = load i16, ptr %11, align 2
  %13 = zext i16 %12 to i32
  %14 = icmp eq i32 %13, 0
  br i1 %14, label %15, label %43

15:                                               ; preds = %3
  %16 = load ptr, ptr %5, align 8
  %17 = getelementptr inbounds i16, ptr %16, i64 1
  %18 = load i16, ptr %17, align 2
  %19 = zext i16 %18 to i32
  %20 = icmp eq i32 %19, 0
  br i1 %20, label %21, label %43

21:                                               ; preds = %15
  %22 = load ptr, ptr %5, align 8
  %23 = getelementptr inbounds i16, ptr %22, i64 2
  %24 = load i16, ptr %23, align 2
  %25 = zext i16 %24 to i32
  %26 = icmp eq i32 %25, 0
  br i1 %26, label %27, label %43

27:                                               ; preds = %21
  %28 = load ptr, ptr %6, align 8
  %29 = getelementptr inbounds i16, ptr %28, i64 2
  store i16 0, ptr %29, align 2
  %30 = load ptr, ptr %6, align 8
  %31 = getelementptr inbounds i16, ptr %30, i64 1
  store i16 0, ptr %31, align 2
  %32 = load ptr, ptr %6, align 8
  %33 = getelementptr inbounds i16, ptr %32, i64 0
  store i16 0, ptr %33, align 2
  %34 = load ptr, ptr %8, align 8
  %35 = getelementptr inbounds %struct.GrayOnlyParams, ptr %34, i32 0, i32 1
  %36 = load ptr, ptr %35, align 8
  %37 = load ptr, ptr %5, align 8
  %38 = getelementptr inbounds i16, ptr %37, i64 3
  %39 = load i16, ptr %38, align 2
  %40 = call zeroext i16 @cmsEvalToneCurve16(ptr noundef %36, i16 noundef zeroext %39)
  %41 = load ptr, ptr %6, align 8
  %42 = getelementptr inbounds i16, ptr %41, i64 3
  store i16 %40, ptr %42, align 2
  store i32 1, ptr %4, align 4
  br label %56

43:                                               ; preds = %21, %15, %3
  %44 = load ptr, ptr %8, align 8
  %45 = getelementptr inbounds %struct.GrayOnlyParams, ptr %44, i32 0, i32 0
  %46 = load ptr, ptr %45, align 8
  %47 = getelementptr inbounds %struct._cmsPipeline_struct, ptr %46, i32 0, i32 4
  %48 = load ptr, ptr %47, align 8
  %49 = load ptr, ptr %5, align 8
  %50 = load ptr, ptr %6, align 8
  %51 = load ptr, ptr %8, align 8
  %52 = getelementptr inbounds %struct.GrayOnlyParams, ptr %51, i32 0, i32 0
  %53 = load ptr, ptr %52, align 8
  %54 = getelementptr inbounds %struct._cmsPipeline_struct, ptr %53, i32 0, i32 3
  %55 = load ptr, ptr %54, align 8
  call void %48(ptr noundef %49, ptr noundef %50, ptr noundef %55)
  store i32 1, ptr %4, align 4
  br label %56

56:                                               ; preds = %43, %27
  %57 = load i32, ptr %4, align 4
  ret i32 %57
}