; Function Attrs: nounwind uwtable
define internal noundef i32 @BlackPreservingGrayOnlySampler(ptr noundef %0, ptr noundef %1, ptr nocapture noundef readonly %2) #0 {
  %4 = load i16, ptr %0, align 2
  %5 = icmp eq i16 %4, 0
  br i1 %5, label %6, label %23

6:                                                ; preds = %3
  %7 = getelementptr inbounds i8, ptr %0, i64 2
  %8 = load i16, ptr %7, align 2
  %9 = icmp eq i16 %8, 0
  br i1 %9, label %10, label %23

10:                                               ; preds = %6
  %11 = getelementptr inbounds i8, ptr %0, i64 4
  %12 = load i16, ptr %11, align 2
  %13 = icmp eq i16 %12, 0
  br i1 %13, label %14, label %23

14:                                               ; preds = %10
  %15 = getelementptr inbounds i8, ptr %1, i64 4
  store i16 0, ptr %15, align 2
  %16 = getelementptr inbounds i8, ptr %1, i64 2
  store i16 0, ptr %16, align 2
  store i16 0, ptr %1, align 2
  %17 = getelementptr inbounds i8, ptr %2, i64 8
  %18 = load ptr, ptr %17, align 8
  %19 = getelementptr inbounds i8, ptr %0, i64 6
  %20 = load i16, ptr %19, align 2
  %21 = tail call zeroext i16 @cmsEvalToneCurve16(ptr noundef %18, i16 noundef zeroext %20) #7
  %22 = getelementptr inbounds i8, ptr %1, i64 6
  store i16 %21, ptr %22, align 2
  br label %29

23:                                               ; preds = %10, %6, %3
  %24 = load ptr, ptr %2, align 8
  %25 = getelementptr inbounds i8, ptr %24, i64 24
  %26 = load ptr, ptr %25, align 8
  %27 = getelementptr inbounds i8, ptr %24, i64 16
  %28 = load ptr, ptr %27, align 8
  tail call void %26(ptr noundef nonnull %0, ptr noundef %1, ptr noundef %28) #7
  br label %29

29:                                               ; preds = %23, %14
  ret i32 1
}